target datalayout = "e-m:e-p270:32:32-p271:32:32-p272:64:64-i64:64-i128:128-f80:128-n8:16:32:64-S128"
target triple = "x86_64-pc-linux-gnu"

%struct.ARKodeARKStepMemRec = type { ptr, ptr, i32, i32, i32, i32, i32, i32, ptr, ptr, ptr, ptr, ptr, ptr, i32, i32, i32, i32, ptr, ptr, ptr, ptr, i32, ptr, double, double, double, double, i32, double, double, double, double, double, double, i32, i64, i32, i32, i32, ptr, ptr, ptr, ptr, ptr, ptr, i32, ptr, ptr, ptr, ptr, ptr, ptr, i32, i32, i64, i64, i64, i64, i64, ptr, ptr, i32, i32, i32, double, double, ptr, i32, ptr, ptr }
%struct.ARKodeMemRec = type { ptr, double, ptr, i32, i32, double, double, ptr, i32, double, ptr, i32, i32, ptr, ptr, i32, ptr, ptr, i32, ptr, ptr, ptr, ptr, ptr, ptr, ptr, ptr, ptr, ptr, ptr, ptr, ptr, ptr, ptr, i32, ptr, ptr, i32, ptr, i32, ptr, ptr, ptr, ptr, ptr, ptr, ptr, ptr, ptr, ptr, ptr, ptr, ptr, ptr, ptr, ptr, ptr, ptr, ptr, ptr, ptr, ptr, ptr, ptr, ptr, ptr, i32, ptr, ptr, ptr, ptr, ptr, ptr, ptr, i32, ptr, ptr, ptr, i32, ptr, ptr, ptr, ptr, ptr, ptr, ptr, i32, i32, i32, i32, double, double, double, double, double, double, double, double, double, double, i32, ptr, i64, i32, i32, i32, i32, i64, i64, i32, i64, i64, i64, i64, i64, i64, i64, double, double, double, double, double, i32, double, double, i32, i32, i32, i32, i32, i32, i32, i32, ptr, i32, ptr, ptr, ptr, ptr, i32, i32, i32 }

@__func__.arkStep_NlsLSetup = private unnamed_addr constant [18 x i8] c"arkStep_NlsLSetup\00", align 1

; Function Attrs: nounwind uwtable
define i32 @arkStep_NlsLSetup(i32 noundef %0, ptr noundef %1, ptr noundef %2) #0 {
  %4 = alloca i32, align 4
  %5 = alloca i32, align 4
  %6 = alloca ptr, align 8
  %7 = alloca ptr, align 8
  %8 = alloca ptr, align 8
  %9 = alloca ptr, align 8
  %10 = alloca i32, align 4
  %11 = alloca i32, align 4
  store i32 %0, ptr %5, align 4, !tbaa !10
  store ptr %1, ptr %6, align 8, !tbaa !70
  store ptr %2, ptr %7, align 8, !tbaa !36
  call void @llvm.lifetime.start.p0(i64 8, ptr %8) #4
  call void @llvm.lifetime.start.p0(i64 8, ptr %9) #4
  call void @llvm.lifetime.start.p0(i64 4, ptr %10) #4
  %12 = load ptr, ptr %7, align 8, !tbaa !36
  %13 = call i32 @arkStep_AccessARKODEStepMem(ptr noundef %12, ptr noundef @__func__.arkStep_NlsLSetup, ptr noundef %8, ptr noundef %9)
  store i32 %13, ptr %10, align 4, !tbaa !10
  %14 = load i32, ptr %10, align 4, !tbaa !10
  %15 = icmp ne i32 %14, 0
  br i1 %15, label %16, label %18

16:                                               ; preds = %3
  %17 = load i32, ptr %10, align 4, !tbaa !10
  store i32 %17, ptr %4, align 4
  store i32 1, ptr %11, align 4
  br label %91

18:                                               ; preds = %3
  %19 = load i32, ptr %5, align 4, !tbaa !10
  %20 = icmp ne i32 %19, 0
  br i1 %20, label %21, label %24

21:                                               ; preds = %18
  %22 = load ptr, ptr %9, align 8, !tbaa !20
  %23 = getelementptr inbounds nuw %struct.ARKodeARKStepMemRec, ptr %22, i32 0, i32 38
  store i32 1, ptr %23, align 4, !tbaa !72
  br label %24

24:                                               ; preds = %21, %18
  %25 = load ptr, ptr %9, align 8, !tbaa !20
  %26 = getelementptr inbounds nuw %struct.ARKodeARKStepMemRec, ptr %25, i32 0, i32 57
  %27 = load i64, ptr %26, align 8, !tbaa !73
  %28 = add nsw i64 %27, 1
  store i64 %28, ptr %26, align 8, !tbaa !73
  %29 = load ptr, ptr %9, align 8, !tbaa !20
  %30 = getelementptr inbounds nuw %struct.ARKodeARKStepMemRec, ptr %29, i32 0, i32 42
  %31 = load ptr, ptr %30, align 8, !tbaa !68
  %32 = load ptr, ptr %8, align 8, !tbaa !3
  %33 = load ptr, ptr %9, align 8, !tbaa !20
  %34 = getelementptr inbounds nuw %struct.ARKodeARKStepMemRec, ptr %33, i32 0, i32 38
  %35 = load i32, ptr %34, align 4, !tbaa !72
  %36 = load ptr, ptr %8, align 8, !tbaa !3
  %37 = getelementptr inbounds nuw %struct.ARKodeMemRec, ptr %36, i32 0, i32 98
  %38 = load double, ptr %37, align 8, !tbaa !55
  %39 = load ptr, ptr %8, align 8, !tbaa !3
  %40 = getelementptr inbounds nuw %struct.ARKodeMemRec, ptr %39, i32 0, i32 75
  %41 = load ptr, ptr %40, align 8, !tbaa !46
  %42 = load ptr, ptr %9, align 8, !tbaa !20
  %43 = getelementptr inbounds nuw %struct.ARKodeARKStepMemRec, ptr %42, i32 0, i32 9
  %44 = load ptr, ptr %43, align 8, !tbaa !53
  %45 = load ptr, ptr %9, align 8, !tbaa !20
  %46 = getelementptr inbounds nuw %struct.ARKodeARKStepMemRec, ptr %45, i32 0, i32 16
  %47 = load i32, ptr %46, align 8, !tbaa !54
  %48 = sext i32 %47 to i64
  %49 = getelementptr inbounds ptr, ptr %44, i64 %48
  %50 = load ptr, ptr %49, align 8, !tbaa !34
  %51 = load ptr, ptr %9, align 8, !tbaa !20
  %52 = getelementptr inbounds nuw %struct.ARKodeARKStepMemRec, ptr %51, i32 0, i32 39
  %53 = load ptr, ptr %8, align 8, !tbaa !3
  %54 = getelementptr inbounds nuw %struct.ARKodeMemRec, ptr %53, i32 0, i32 79
  %55 = load ptr, ptr %54, align 8, !tbaa !74
  %56 = load ptr, ptr %8, align 8, !tbaa !3
  %57 = getelementptr inbounds nuw %struct.ARKodeMemRec, ptr %56, i32 0, i32 80
  %58 = load ptr, ptr %57, align 8, !tbaa !75
  %59 = load ptr, ptr %8, align 8, !tbaa !3
  %60 = getelementptr inbounds nuw %struct.ARKodeMemRec, ptr %59, i32 0, i32 81
  %61 = load ptr, ptr %60, align 8, !tbaa !76
  %62 = call i32 %31(ptr noundef %32, i32 noundef %35, double noundef %38, ptr noundef %41, ptr noundef %50, ptr noundef %52, ptr noundef %55, ptr noundef %58, ptr noundef %61)
  store i32 %62, ptr %10, align 4, !tbaa !10
  %63 = load ptr, ptr %9, align 8, !tbaa !20
  %64 = getelementptr inbounds nuw %struct.ARKodeARKStepMemRec, ptr %63, i32 0, i32 39
  %65 = load i32, ptr %64, align 8, !tbaa !77
  %66 = load ptr, ptr %6, align 8, !tbaa !70
  store i32 %65, ptr %66, align 4, !tbaa !10
  %67 = load ptr, ptr %8, align 8, !tbaa !3
  %68 = getelementptr inbounds nuw %struct.ARKodeMemRec, ptr %67, i32 0, i32 130
  store i32 0, ptr %68, align 4, !tbaa !78
  %69 = load ptr, ptr %9, align 8, !tbaa !20
  %70 = getelementptr inbounds nuw %struct.ARKodeARKStepMemRec, ptr %69, i32 0, i32 31
  store double 1.000000e+00, ptr %70, align 8, !tbaa !39
  %71 = load ptr, ptr %9, align 8, !tbaa !20
  %72 = getelementptr inbounds nuw %struct.ARKodeARKStepMemRec, ptr %71, i32 0, i32 26
  store double 1.000000e+00, ptr %72, align 8, !tbaa !79
  %73 = load ptr, ptr %9, align 8, !tbaa !20
  %74 = getelementptr inbounds nuw %struct.ARKodeARKStepMemRec, ptr %73, i32 0, i32 24
  %75 = load double, ptr %74, align 8, !tbaa !59
  %76 = load ptr, ptr %9, align 8, !tbaa !20
  %77 = getelementptr inbounds nuw %struct.ARKodeARKStepMemRec, ptr %76, i32 0, i32 25
  store double %75, ptr %77, align 8, !tbaa !80
  %78 = load ptr, ptr %8, align 8, !tbaa !3
  %79 = getelementptr inbounds nuw %struct.ARKodeMemRec, ptr %78, i32 0, i32 108
  %80 = load i64, ptr %79, align 8, !tbaa !81
  %81 = load ptr, ptr %9, align 8, !tbaa !20
  %82 = getelementptr inbounds nuw %struct.ARKodeARKStepMemRec, ptr %81, i32 0, i32 36
  store i64 %80, ptr %82, align 8, !tbaa !82
  %83 = load i32, ptr %10, align 4, !tbaa !10
  %84 = icmp slt i32 %83, 0
  br i1 %84, label %85, label %86

85:                                               ; preds = %24
  store i32 -6, ptr %4, align 4
  store i32 1, ptr %11, align 4
  br label %91

86:                                               ; preds = %24
  %87 = load i32, ptr %10, align 4, !tbaa !10
  %88 = icmp sgt i32 %87, 0
  br i1 %88, label %89, label %90

89:                                               ; preds = %86
  store i32 4, ptr %4, align 4
  store i32 1, ptr %11, align 4
  br label %91

90:                                               ; preds = %86
  store i32 0, ptr %4, align 4
  store i32 1, ptr %11, align 4
  br label %91

91:                                               ; preds = %90, %89, %85, %16
  call void @llvm.lifetime.end.p0(i64 4, ptr %10) #4
  call void @llvm.lifetime.end.p0(i64 8, ptr %9) #4
  call void @llvm.lifetime.end.p0(i64 8, ptr %8) #4
  %92 = load i32, ptr %4, align 4
  ret i32 %92
}