; Function Attrs: nounwind uwtable
define i32 @arkStep_NlsLSetup(i32 noundef %0, ptr noundef writeonly captures(none) %1, ptr noundef %2) #0 {
  %4 = alloca ptr, align 8
  %5 = alloca ptr, align 8
  call void @llvm.lifetime.start.p0(i64 8, ptr nonnull %4) #5
  call void @llvm.lifetime.start.p0(i64 8, ptr nonnull %5) #5
  %6 = call i32 @arkStep_AccessARKODEStepMem(ptr noundef %2, ptr noundef nonnull @__func__.arkStep_NlsLSetup, ptr noundef nonnull %4, ptr noundef nonnull %5) #5
  %.not = icmp eq i32 %6, 0
  br i1 %.not, label %7, label %51

7:                                                ; preds = %3
  %.not9 = icmp eq i32 %0, 0
  %.pre = load ptr, ptr %5, align 8, !tbaa !14
  %.phi.trans.insert = getelementptr inbounds nuw i8, ptr %.pre, i64 260
  br i1 %.not9, label %._crit_edge, label %8

._crit_edge:                                      ; preds = %7
  %.pre11 = load i32, ptr %.phi.trans.insert, align 4, !tbaa !65
  br label %9

8:                                                ; preds = %7
  store i32 1, ptr %.phi.trans.insert, align 4, !tbaa !65
  br label %9

9:                                                ; preds = %._crit_edge, %8
  %10 = phi i32 [ %.pre11, %._crit_edge ], [ 1, %8 ]
  %11 = getelementptr inbounds nuw i8, ptr %.pre, i64 400
  %12 = load i64, ptr %11, align 8, !tbaa !66
  %13 = add nsw i64 %12, 1
  store i64 %13, ptr %11, align 8, !tbaa !66
  %14 = getelementptr inbounds nuw i8, ptr %.pre, i64 288
  %15 = load ptr, ptr %14, align 8, !tbaa !63
  %16 = load ptr, ptr %4, align 8, !tbaa !40
  %17 = getelementptr inbounds nuw i8, ptr %16, i64 752
  %18 = load double, ptr %17, align 8, !tbaa !52
  %19 = getelementptr inbounds nuw i8, ptr %16, i64 584
  %20 = load ptr, ptr %19, align 8, !tbaa !42
  %21 = getelementptr inbounds nuw i8, ptr %.pre, i64 48
  %22 = load ptr, ptr %21, align 8, !tbaa !49
  %23 = getelementptr inbounds nuw i8, ptr %.pre, i64 96
  %24 = load i32, ptr %23, align 8, !tbaa !50
  %25 = sext i32 %24 to i64
  %26 = getelementptr inbounds ptr, ptr %22, i64 %25
  %27 = load ptr, ptr %26, align 8, !tbaa !51
  %28 = getelementptr inbounds nuw i8, ptr %.pre, i64 264
  %29 = getelementptr inbounds nuw i8, ptr %16, i64 616
  %30 = load ptr, ptr %29, align 8, !tbaa !67
  %31 = getelementptr inbounds nuw i8, ptr %16, i64 624
  %32 = load ptr, ptr %31, align 8, !tbaa !68
  %33 = getelementptr inbounds nuw i8, ptr %16, i64 632
  %34 = load ptr, ptr %33, align 8, !tbaa !69
  %35 = call i32 %15(ptr noundef %16, i32 noundef %10, double noundef %18, ptr noundef %20, ptr noundef %27, ptr noundef nonnull %28, ptr noundef %30, ptr noundef %32, ptr noundef %34) #5
  %36 = load ptr, ptr %5, align 8, !tbaa !14
  %37 = getelementptr inbounds nuw i8, ptr %36, i64 264
  %38 = load i32, ptr %37, align 8, !tbaa !70
  store i32 %38, ptr %1, align 4, !tbaa !31
  %39 = load ptr, ptr %4, align 8, !tbaa !40
  %40 = getelementptr inbounds nuw i8, ptr %39, i64 972
  store i32 0, ptr %40, align 4, !tbaa !71
  %41 = getelementptr inbounds nuw i8, ptr %36, i64 208
  store double 1.000000e+00, ptr %41, align 8, !tbaa !33
  %42 = getelementptr inbounds nuw i8, ptr %36, i64 168
  store double 1.000000e+00, ptr %42, align 8, !tbaa !72
  %43 = getelementptr inbounds nuw i8, ptr %36, i64 152
  %44 = load double, ptr %43, align 8, !tbaa !57
  %45 = getelementptr inbounds nuw i8, ptr %36, i64 160
  store double %44, ptr %45, align 8, !tbaa !73
  %46 = getelementptr inbounds nuw i8, ptr %39, i64 816
  %47 = load i64, ptr %46, align 8, !tbaa !74
  %48 = getelementptr inbounds nuw i8, ptr %36, i64 248
  store i64 %47, ptr %48, align 8, !tbaa !75
  %49 = icmp slt i32 %35, 0
  br i1 %49, label %51, label %50

50:                                               ; preds = %9
  %.not10 = icmp eq i32 %35, 0
  %. = select i1 %.not10, i32 0, i32 4
  br label %51

51:                                               ; preds = %50, %9, %3
  %.0 = phi i32 [ %6, %3 ], [ -6, %9 ], [ %., %50 ]
  call void @llvm.lifetime.end.p0(i64 8, ptr nonnull %5) #5
  call void @llvm.lifetime.end.p0(i64 8, ptr nonnull %4) #5
  ret i32 %.0
}